; Function Attrs: mustprogress uwtable
define hidden void @_ZN3sls10smt_solver18collect_statisticsER10statistics(ptr noundef nonnull readonly align 8 captures(none) dereferenceable(488) %0, ptr noundef nonnull align 8 dereferenceable(16) %1) local_unnamed_addr #3 align 2 {
  %3 = getelementptr inbounds nuw i8, ptr %0, i64 448
  %4 = load ptr, ptr %3, align 8, !tbaa !8
  %5 = getelementptr inbounds nuw i8, ptr %4, i64 24
  %6 = load ptr, ptr %5, align 8, !tbaa !77
  tail call void @_ZNK3sat4ddfw18collect_statisticsER10statistics(ptr noundef nonnull align 8 dereferenceable(434) %6, ptr noundef nonnull align 8 dereferenceable(16) %1)
  %7 = getelementptr inbounds nuw i8, ptr %4, i64 32
  tail call void @_ZNK3sls7context18collect_statisticsER10statistics(ptr noundef nonnull align 8 dereferenceable(321) %7, ptr noundef nonnull align 8 dereferenceable(16) %1)
  ret void
}